; Function Attrs: mustprogress nofree norecurse nosync nounwind null_pointer_is_valid sspstrong willreturn memory(none) uwtable
define internal noundef zeroext i1 @check_cnum(i32 noundef %0, i16 noundef zeroext %1) #7 {
  %3 = icmp eq i32 %0, 2
  %4 = icmp eq i16 %1, 13
  %or.cond = and i1 %3, %4
  br i1 %or.cond, label %8, label %5

5:                                                ; preds = %2
  %6 = icmp eq i32 %0, 1
  %7 = icmp eq i16 %1, 58
  %or.cond5 = and i1 %6, %7
  br label %8

8:                                                ; preds = %5, %2
  %.0 = phi i1 [ true, %2 ], [ %or.cond5, %5 ]
  ret i1 %.0
}